target datalayout = "e-m:e-p270:32:32-p271:32:32-p272:64:64-i64:64-i128:128-f80:128-n8:16:32:64-S128"
target triple = "x86_64-pc-linux-gnu"

%struct.AVFilterContext = type { ptr, ptr, ptr, ptr, ptr, i32, ptr, ptr, i32, ptr, ptr, i32, i32, ptr, ptr, ptr, ptr, i32, ptr, i32, i32 }
%struct.LUT3DContext = type { ptr, ptr, i32, i32, %struct.rgbvec, i32, ptr, [4 x i8], i32, ptr, %struct.Lut3DPreLut, i32, i32, [4 x i8], i32, i32, i32, i32, i32, %struct.FFFrameSync }
%struct.rgbvec = type { float, float, float }
%struct.Lut3DPreLut = type { i32, [3 x float], [3 x float], [3 x float], [3 x ptr] }
%struct.FFFrameSync = type { ptr, ptr, i32, %struct.AVRational, i64, ptr, ptr, i32, i32, i8, i8, ptr, i32, i32, i32, i32 }
%struct.AVRational = type { i32, i32 }
%struct.AVFilterLink = type { ptr, ptr, ptr, ptr, i32, i32, i32, i32, %struct.AVRational, i32, i32, i32, %struct.AVChannelLayout, %struct.AVRational, ptr, i32, %struct.AVFilterFormatsConfig, %struct.AVFilterFormatsConfig }
%struct.AVChannelLayout = type { i32, i32, %union.anon.1, ptr }
%union.anon.1 = type { i64 }
%struct.AVFilterFormatsConfig = type { ptr, ptr, ptr, ptr, ptr }

; Function Attrs: nounwind uwtable
define internal i32 @config_output(ptr noundef %0) #1 {
  %2 = alloca i32, align 4
  %3 = alloca ptr, align 8
  %4 = alloca ptr, align 8
  %5 = alloca ptr, align 8
  %6 = alloca i32, align 4
  %7 = alloca i32, align 4
  store ptr %0, ptr %3, align 8, !tbaa !45
  call void @llvm.lifetime.start.p0(i64 8, ptr %4) #16
  %8 = load ptr, ptr %3, align 8, !tbaa !45
  %9 = getelementptr inbounds nuw %struct.AVFilterLink, ptr %8, i32 0, i32 0
  %10 = load ptr, ptr %9, align 8, !tbaa !257
  store ptr %10, ptr %4, align 8, !tbaa !4
  call void @llvm.lifetime.start.p0(i64 8, ptr %5) #16
  %11 = load ptr, ptr %4, align 8, !tbaa !4
  %12 = getelementptr inbounds nuw %struct.AVFilterContext, ptr %11, i32 0, i32 9
  %13 = load ptr, ptr %12, align 8, !tbaa !9
  store ptr %13, ptr %5, align 8, !tbaa !22
  call void @llvm.lifetime.start.p0(i64 4, ptr %6) #16
  %14 = load ptr, ptr %5, align 8, !tbaa !22
  %15 = getelementptr inbounds nuw %struct.LUT3DContext, ptr %14, i32 0, i32 19
  %16 = load ptr, ptr %4, align 8, !tbaa !4
  %17 = call i32 @ff_framesync_init_dualinput(ptr noundef %15, ptr noundef %16)
  store i32 %17, ptr %6, align 4, !tbaa !39
  %18 = load i32, ptr %6, align 4, !tbaa !39
  %19 = icmp slt i32 %18, 0
  br i1 %19, label %20, label %22

20:                                               ; preds = %1
  %21 = load i32, ptr %6, align 4, !tbaa !39
  store i32 %21, ptr %2, align 4
  store i32 1, ptr %7, align 4
  br label %56

22:                                               ; preds = %1
  %23 = load ptr, ptr %4, align 8, !tbaa !4
  %24 = getelementptr inbounds nuw %struct.AVFilterContext, ptr %23, i32 0, i32 4
  %25 = load ptr, ptr %24, align 8, !tbaa !44
  %26 = getelementptr inbounds ptr, ptr %25, i64 0
  %27 = load ptr, ptr %26, align 8, !tbaa !45
  %28 = getelementptr inbounds nuw %struct.AVFilterLink, ptr %27, i32 0, i32 6
  %29 = load i32, ptr %28, align 8, !tbaa !76
  %30 = load ptr, ptr %3, align 8, !tbaa !45
  %31 = getelementptr inbounds nuw %struct.AVFilterLink, ptr %30, i32 0, i32 6
  store i32 %29, ptr %31, align 8, !tbaa !76
  %32 = load ptr, ptr %4, align 8, !tbaa !4
  %33 = getelementptr inbounds nuw %struct.AVFilterContext, ptr %32, i32 0, i32 4
  %34 = load ptr, ptr %33, align 8, !tbaa !44
  %35 = getelementptr inbounds ptr, ptr %34, i64 0
  %36 = load ptr, ptr %35, align 8, !tbaa !45
  %37 = getelementptr inbounds nuw %struct.AVFilterLink, ptr %36, i32 0, i32 7
  %38 = load i32, ptr %37, align 4, !tbaa !77
  %39 = load ptr, ptr %3, align 8, !tbaa !45
  %40 = getelementptr inbounds nuw %struct.AVFilterLink, ptr %39, i32 0, i32 7
  store i32 %38, ptr %40, align 4, !tbaa !77
  %41 = load ptr, ptr %3, align 8, !tbaa !45
  %42 = getelementptr inbounds nuw %struct.AVFilterLink, ptr %41, i32 0, i32 13
  %43 = load ptr, ptr %4, align 8, !tbaa !4
  %44 = getelementptr inbounds nuw %struct.AVFilterContext, ptr %43, i32 0, i32 4
  %45 = load ptr, ptr %44, align 8, !tbaa !44
  %46 = getelementptr inbounds ptr, ptr %45, i64 0
  %47 = load ptr, ptr %46, align 8, !tbaa !45
  %48 = getelementptr inbounds nuw %struct.AVFilterLink, ptr %47, i32 0, i32 13
  call void @llvm.memcpy.p0.p0.i64(ptr align 8 %42, ptr align 8 %48, i64 8, i1 false), !tbaa.struct !258
  %49 = load ptr, ptr %5, align 8, !tbaa !22
  %50 = getelementptr inbounds nuw %struct.LUT3DContext, ptr %49, i32 0, i32 19
  %51 = call i32 @ff_framesync_configure(ptr noundef %50)
  store i32 %51, ptr %6, align 4, !tbaa !39
  %52 = icmp slt i32 %51, 0
  br i1 %52, label %53, label %55

53:                                               ; preds = %22
  %54 = load i32, ptr %6, align 4, !tbaa !39
  store i32 %54, ptr %2, align 4
  store i32 1, ptr %7, align 4
  br label %56

55:                                               ; preds = %22
  store i32 0, ptr %2, align 4
  store i32 1, ptr %7, align 4
  br label %56

56:                                               ; preds = %55, %53, %20
  call void @llvm.lifetime.end.p0(i64 4, ptr %6) #16
  call void @llvm.lifetime.end.p0(i64 8, ptr %5) #16
  call void @llvm.lifetime.end.p0(i64 8, ptr %4) #16
  %57 = load i32, ptr %2, align 4
  ret i32 %57
}