; Function Attrs: nounwind uwtable
define internal range(i32 -2147483648, 1) i32 @config_output(ptr noundef captures(none) %0) #1 {
  %2 = load ptr, ptr %0, align 8, !tbaa !251
  %3 = getelementptr inbounds nuw i8, ptr %2, i64 72
  %4 = load ptr, ptr %3, align 8, !tbaa !4
  %5 = getelementptr inbounds nuw i8, ptr %4, i64 160
  %6 = tail call i32 @ff_framesync_init_dualinput(ptr noundef nonnull %5, ptr noundef %2) #21
  %7 = icmp slt i32 %6, 0
  br i1 %7, label %22, label %8

8:                                                ; preds = %1
  %9 = getelementptr inbounds nuw i8, ptr %2, i64 32
  %10 = load ptr, ptr %9, align 8, !tbaa !77
  %11 = load ptr, ptr %10, align 8, !tbaa !78
  %12 = getelementptr inbounds nuw i8, ptr %11, i64 40
  %13 = load i32, ptr %12, align 8, !tbaa !118
  %14 = getelementptr inbounds nuw i8, ptr %0, i64 40
  store i32 %13, ptr %14, align 8, !tbaa !118
  %15 = getelementptr inbounds nuw i8, ptr %11, i64 44
  %16 = load i32, ptr %15, align 4, !tbaa !119
  %17 = getelementptr inbounds nuw i8, ptr %0, i64 44
  store i32 %16, ptr %17, align 4, !tbaa !119
  %18 = getelementptr inbounds nuw i8, ptr %0, i64 96
  %19 = getelementptr inbounds nuw i8, ptr %11, i64 96
  %20 = load i64, ptr %19, align 8
  store i64 %20, ptr %18, align 8
  %21 = tail call i32 @ff_framesync_configure(ptr noundef nonnull %5) #21
  %. = tail call i32 @llvm.smin.i32(i32 %21, i32 0)
  br label %22

22:                                               ; preds = %8, %1
  %.0 = phi i32 [ %6, %1 ], [ %., %8 ]
  ret i32 %.0
}